; Function Attrs: mustprogress uwtable
define hidden void @_ZN6google8protobuf30DescriptorProto_ExtensionRangeC2ERKS1_(ptr noundef nonnull align 8 dereferenceable(40) initializes((0, 24)) %0, ptr noundef nonnull readonly align 8 captures(none) dereferenceable(40) %1) unnamed_addr #3 align 2 personality ptr @__gxx_personality_v0 {
.noexc:
  %2 = getelementptr inbounds nuw i8, ptr %0, i64 8
  store i64 0, ptr %2, align 8, !tbaa !8
  store ptr getelementptr inbounds nuw inrange(-16, 152) (i8, ptr @_ZTVN6google8protobuf30DescriptorProto_ExtensionRangeE, i64 16), ptr %0, align 8, !tbaa !11
  %3 = getelementptr inbounds nuw i8, ptr %0, i64 16
  %4 = getelementptr inbounds nuw i8, ptr %1, i64 16
  %5 = load i32, ptr %4, align 8, !tbaa !41
  store i32 %5, ptr %3, align 8, !tbaa !41
  %6 = getelementptr inbounds nuw i8, ptr %0, i64 20
  store i32 0, ptr %6, align 4, !tbaa !25
  %7 = getelementptr inbounds nuw i8, ptr %1, i64 8
  %8 = load i64, ptr %7, align 8, !tbaa !8
  %9 = and i64 %8, 1
  %.not = icmp eq i64 %9, 0
  br i1 %.not, label %13, label %.noexc9

.noexc9:                                          ; preds = %.noexc
  %10 = and i64 %8, -4
  %11 = inttoptr i64 %10 to ptr
  %12 = getelementptr inbounds nuw i8, ptr %11, i64 8
  invoke void @_ZN6google8protobuf8internal16InternalMetadata11DoMergeFromINS0_15UnknownFieldSetEEEvRKT_(ptr noundef nonnull align 8 dereferenceable(8) %2, ptr noundef nonnull align 8 dereferenceable(24) %12)
          to label %13 unwind label %23

13:                                               ; preds = %.noexc9, %.noexc
  %14 = load i32, ptr %4, align 8, !tbaa !58
  %15 = and i32 %14, 1
  %.not12 = icmp eq i32 %15, 0
  %16 = getelementptr inbounds nuw i8, ptr %1, i64 24
  %17 = load ptr, ptr %16, align 8
  %18 = icmp ne ptr %17, null
  %19 = select i1 %.not12, i1 true, i1 %18
  tail call void @llvm.assume(i1 %19)
  br i1 %.not12, label %27, label %20

20:                                               ; preds = %13
  %21 = invoke noalias noundef nonnull dereferenceable(72) ptr @_Znwm(i64 noundef 72) #26
          to label %22 unwind label %23

22:                                               ; preds = %20
  invoke void @_ZN6google8protobuf21ExtensionRangeOptionsC2ERKS1_(ptr noundef nonnull align 8 dereferenceable(72) %21, ptr noundef nonnull align 8 dereferenceable(72) %17)
          to label %27 unwind label %25

23:                                               ; preds = %.noexc9, %20
  %24 = landingpad { ptr, i32 }
          cleanup
  br label %32

25:                                               ; preds = %22
  %26 = landingpad { ptr, i32 }
          cleanup
  tail call void @_ZdlPv(ptr noundef nonnull %21) #25
  br label %32

27:                                               ; preds = %13, %22
  %.sink = phi ptr [ %21, %22 ], [ null, %13 ]
  %28 = getelementptr inbounds nuw i8, ptr %0, i64 24
  store ptr %.sink, ptr %28, align 8, !tbaa !172
  %29 = getelementptr inbounds nuw i8, ptr %0, i64 32
  %30 = getelementptr inbounds nuw i8, ptr %1, i64 32
  %31 = load i64, ptr %30, align 8
  store i64 %31, ptr %29, align 8
  ret void

32:                                               ; preds = %25, %23
  %.pn = phi { ptr, i32 } [ %26, %25 ], [ %24, %23 ]
  tail call void @_ZN6google8protobuf11MessageLiteD2Ev(ptr noundef nonnull align 8 dereferenceable(16) %0) #24
  resume { ptr, i32 } %.pn
}